; Function Attrs: mustprogress uwtable
define void @_ZN32pxrInternal_v0_24__pxrReserved__25SdfLayerStateDelegateBase13SetTimeSampleERKNS_7SdfPathEdRKNS_25SdfAbstractDataConstValueE(ptr noundef nonnull align 8 dereferenceable(40) %0, ptr noundef nonnull align 4 dereferenceable(8) %1, double noundef %2, ptr noundef nonnull align 8 dereferenceable(24) %3) local_unnamed_addr #5 align 2 {
  %5 = alloca %"class.pxrInternal_v0_24__pxrReserved__::TfCallContext", align 8
  %6 = load ptr, ptr %0, align 8
  %7 = getelementptr inbounds i8, ptr %6, i64 88
  %8 = load ptr, ptr %7, align 8
  tail call void %8(ptr noundef nonnull align 8 dereferenceable(40) %0, ptr noundef nonnull align 4 dereferenceable(8) %1, double noundef %2, ptr noundef nonnull align 8 dereferenceable(24) %3)
  call void @llvm.lifetime.start.p0(i64 40, ptr nonnull %5)
  %9 = getelementptr inbounds i8, ptr %0, i64 32
  %10 = load ptr, ptr %9, align 8
  %.not.i.i.i.i.i = icmp eq ptr %10, null
  br i1 %.not.i.i.i.i.i, label %_ZNK32pxrInternal_v0_24__pxrReserved__15TfWeakPtrFacadeINS_9TfWeakPtrENS_8SdfLayerEE13_FetchPointerEv.exit.thread.i, label %_ZNK32pxrInternal_v0_24__pxrReserved__8TfRefPtrINS_10Tf_RemnantEEptEv.exit.i.i.i.i

_ZNK32pxrInternal_v0_24__pxrReserved__8TfRefPtrINS_10Tf_RemnantEEptEv.exit.i.i.i.i: ; preds = %4
  %11 = getelementptr inbounds nuw i8, ptr %0, i64 24
  %12 = getelementptr inbounds nuw i8, ptr %10, i64 14
  %13 = load i8, ptr %12, align 2
  %14 = trunc i8 %13 to i1
  %15 = load ptr, ptr %11, align 8
  %.not.i = icmp ne ptr %15, null
  %or.cond.not.i = select i1 %14, i1 %.not.i, i1 false
  br i1 %or.cond.not.i, label %_ZNK32pxrInternal_v0_24__pxrReserved__15TfWeakPtrFacadeINS_9TfWeakPtrENS_8SdfLayerEEptEv.exit, label %_ZNK32pxrInternal_v0_24__pxrReserved__15TfWeakPtrFacadeINS_9TfWeakPtrENS_8SdfLayerEE13_FetchPointerEv.exit.thread.i

_ZNK32pxrInternal_v0_24__pxrReserved__15TfWeakPtrFacadeINS_9TfWeakPtrENS_8SdfLayerEE13_FetchPointerEv.exit.thread.i: ; preds = %_ZNK32pxrInternal_v0_24__pxrReserved__8TfRefPtrINS_10Tf_RemnantEEptEv.exit.i.i.i.i, %4
  store ptr @.str, ptr %5, align 8
  %16 = getelementptr inbounds nuw i8, ptr %5, i64 8
  store ptr @__func__._ZNK32pxrInternal_v0_24__pxrReserved__15TfWeakPtrFacadeINS_9TfWeakPtrENS_8SdfLayerEEptEv, ptr %16, align 8
  %17 = getelementptr inbounds nuw i8, ptr %5, i64 16
  store i64 198, ptr %17, align 8
  %18 = getelementptr inbounds nuw i8, ptr %5, i64 24
  store ptr @__PRETTY_FUNCTION__._ZNK32pxrInternal_v0_24__pxrReserved__15TfWeakPtrFacadeINS_9TfWeakPtrENS_8SdfLayerEEptEv, ptr %18, align 8
  %19 = getelementptr inbounds nuw i8, ptr %5, i64 32
  store i8 0, ptr %19, align 8
  call void @_ZN32pxrInternal_v0_24__pxrReserved__40Tf_PostNullSmartPtrDereferenceFatalErrorERKNS_13TfCallContextEPKc(ptr noundef nonnull align 8 dereferenceable(33) %5, ptr noundef nonnull @_ZTSN32pxrInternal_v0_24__pxrReserved__9TfWeakPtrINS_8SdfLayerEEE) #19
  unreachable

_ZNK32pxrInternal_v0_24__pxrReserved__15TfWeakPtrFacadeINS_9TfWeakPtrENS_8SdfLayerEEptEv.exit: ; preds = %_ZNK32pxrInternal_v0_24__pxrReserved__8TfRefPtrINS_10Tf_RemnantEEptEv.exit.i.i.i.i
  call void @llvm.lifetime.end.p0(i64 40, ptr nonnull %5)
  tail call void @_ZN32pxrInternal_v0_24__pxrReserved__8SdfLayer18_PrimSetTimeSampleINS_25SdfAbstractDataConstValueEEEvRKNS_7SdfPathEdRKT_b(ptr noundef nonnull align 8 dereferenceable(557) %15, ptr noundef nonnull align 4 dereferenceable(8) %1, double noundef %2, ptr noundef nonnull align 8 dereferenceable(24) %3, i1 noundef zeroext false)
  ret void
}